(lp0
(S'cppflags'
p1
ccopy_reg
_reconstructor
p2
(cino.utils
SpaceList
p3
c__builtin__
list
p4
(lp5
S'-mmcu=atmega328p'
p6
aS'-DF_CPU=16000000L'
p7
aS'-DARDUINO=101'
p8
aS'-I/usr/share/arduino/hardware/arduino/cores/arduino'
p9
aS'-ffunction-sections'
p10
aS'-fdata-sections'
p11
aS'-g'
p12
aS'-Os'
p13
aS'-w'
p14
aS'-I/usr/share/arduino/hardware/arduino/variants/standard'
p15
aS'-Ilib/Adafruit_MotorShield'
p16
aS'-Ilib/Adafruit_MotorShield/utility'
p17
aS'-I/usr/share/arduino/libraries/Wire'
p18
aS'-I/usr/share/arduino/libraries/Wire/utility'
p19
aS'-I/usr/share/arduino/hardware/arduino/cores/arduino'
p20
atp21
Rp22
tp23
a(S'cxx'
p24
S'/usr/bin/avr-g++'
p25
tp26
a(S'arduino_libraries_dir'
p27
S'/usr/share/arduino/libraries'
p28
tp29
a(S'avrdude'
p30
S'/usr/share/arduino/hardware/tools/avrdude'
p31
tp32
a(S'ar'
p33
S'/usr/bin/avr-ar'
p34
tp35
a(S'names'
p36
(dp37
S'cpp'
p38
S'%s.cpp'
p39
sS'obj'
p40
S'%s.o'
p41
sS'lib'
p42
S'lib%s.a'
p43
sS'deps'
p44
S'%s.d'
p45
stp46
a(S'ldflags'
p47
g2
(g3
g4
(lp48
g6
aS'-Wl,-Os'
p49
aS'-Wl,--gc-sections'
p50
atp51
Rp52
tp53
a(S'arduino_lib_version'
p54
g2
(cino.environment
Version
p55
c__builtin__
tuple
p56
(I1
I0
I1
tp57
tp58
Rp59
tp60
a(S'objcopy'
p61
S'/usr/bin/avr-objcopy'
p62
tp63
a(S'board_models'
p64
cino.environment
BoardModels
p65
((lp66
(lp67
S'gertduino48'
p68
a(dp69
S'bootloader'
p70
(dp71
S'extended_fuses'
p72
S'0x01'
p73
sS'high_fuses'
p74
S'0xDF'
p75
sS'low_fuses'
p76
S'0xE2'
p77
sS'lock_bits'
p78
S'0x0F'
p79
sS'file'
p80
S'ATmegaBOOT_48_gert48.hex'
p81
sS'path'
p82
S'atmega'
p83
sS'unlock_bits'
p84
S'0x3F'
p85
ssS'upload'
p86
(dp87
S'using'
p88
S'gpio'
p89
sS'maximum_size'
p90
S'4096'
p91
sS'protocol'
p92
S'gpio'
p93
sS'disable_flushing'
p94
S'true'
p95
sS'speed'
p96
S'57600'
p97
ssS'build'
p98
(dp99
S'core'
p100
S'arduino'
p101
sS'mcu'
p102
S'atmega48p'
p103
sS'f_cpu'
p104
S'8000000L'
p105
sS'variant'
p106
S'standard'
p107
ssS'name'
p108
S'Gertuino ATmega44 (GPIO)'
p109
saa(lp110
S'gertduino328'
p111
a(dp112
S'bootloader'
p113
(dp114
S'extended_fuses'
p115
S'0x07'
p116
sS'high_fuses'
p117
S'0xDA'
p118
sS'low_fuses'
p119
S'0xE7'
p120
sS'lock_bits'
p121
S'0x0F'
p122
sS'file'
p123
S'ATmegaBOOT_168_gert328.hex'
p124
sS'path'
p125
S'atmega'
p126
sS'unlock_bits'
p127
S'0x3F'
p128
ssS'upload'
p129
(dp130
S'using'
p131
S'gpio'
p132
sS'maximum_size'
p133
S'32768'
p134
sS'protocol'
p135
S'gpio'
p136
sS'disable_flushing'
p137
S'true'
p138
sS'speed'
p139
S'57600'
p140
ssS'build'
p141
(dp142
S'core'
p143
S'arduino'
p144
sS'mcu'
p145
S'atmega328p'
p146
sS'f_cpu'
p147
S'16000000L'
p148
sS'variant'
p149
S'standard'
p150
ssS'name'
p151
S'Gertuino with ATmega328 (GPIO)'
p152
saa(lp153
S'gertduino168'
p154
a(dp155
S'bootloader'
p156
(dp157
S'extended_fuses'
p158
S'0x07'
p159
sS'high_fuses'
p160
S'0xDA'
p161
sS'low_fuses'
p162
S'0xE7'
p163
sS'lock_bits'
p164
S'0x0F'
p165
sS'file'
p166
S'ATmegaBOOT_168_gert168.hex'
p167
sS'path'
p168
S'atmega'
p169
sS'unlock_bits'
p170
S'0x3F'
p171
ssS'upload'
p172
(dp173
S'using'
p174
S'gpio'
p175
sS'maximum_size'
p176
S'16384'
p177
sS'protocol'
p178
S'gpio'
p179
sS'disable_flushing'
p180
S'true'
p181
sS'speed'
p182
S'57600'
p183
ssS'build'
p184
(dp185
S'core'
p186
S'arduino'
p187
sS'mcu'
p188
S'atmega168'
p189
sS'f_cpu'
p190
S'16000000L'
p191
sS'variant'
p192
S'standard'
p193
ssS'name'
p194
S'Gertduino with ATmega168 (GPIO)'
p195
saa(lp196
S'gert328'
p197
a(dp198
S'bootloader'
p199
(dp200
S'extended_fuses'
p201
S'0x07'
p202
sS'high_fuses'
p203
S'0xDA'
p204
sS'low_fuses'
p205
S'0xE7'
p206
sS'lock_bits'
p207
S'0x0F'
p208
sS'file'
p209
S'ATmegaBOOT_168_gert328.hex'
p210
sS'path'
p211
S'atmega'
p212
sS'unlock_bits'
p213
S'0x3F'
p214
ssS'upload'
p215
(dp216
S'using'
p217
S'gpio'
p218
sS'maximum_size'
p219
S'32768'
p220
sS'protocol'
p221
S'gpio'
p222
sS'disable_flushing'
p223
S'true'
p224
sS'speed'
p225
S'57600'
p226
ssS'build'
p227
(dp228
S'core'
p229
S'arduino'
p230
sS'mcu'
p231
S'atmega328p'
p232
sS'f_cpu'
p233
S'12000000L'
p234
sS'variant'
p235
S'standard'
p236
ssS'name'
p237
S'Gertboard with ATmega328 (GPIO)'
p238
saa(lp239
S'gert168'
p240
a(dp241
S'bootloader'
p242
(dp243
S'extended_fuses'
p244
S'0x07'
p245
sS'high_fuses'
p246
S'0xDA'
p247
sS'low_fuses'
p248
S'0xE7'
p249
sS'lock_bits'
p250
S'0x0F'
p251
sS'file'
p252
S'ATmegaBOOT_168_gert168.hex'
p253
sS'path'
p254
S'atmega'
p255
sS'unlock_bits'
p256
S'0x3F'
p257
ssS'upload'
p258
(dp259
S'using'
p260
S'gpio'
p261
sS'maximum_size'
p262
S'16384'
p263
sS'protocol'
p264
S'gpio'
p265
sS'disable_flushing'
p266
S'true'
p267
sS'speed'
p268
S'57600'
p269
ssS'build'
p270
(dp271
S'core'
p272
S'arduino'
p273
sS'mcu'
p274
S'atmega168'
p275
sS'f_cpu'
p276
S'12000000L'
p277
sS'variant'
p278
S'standard'
p279
ssS'name'
p280
S'Gertboard with ATmega168 (GPIO)'
p281
saa(lp282
S'uno'
p283
a(dp284
S'bootloader'
p285
(dp286
S'extended_fuses'
p287
S'0x05'
p288
sS'high_fuses'
p289
S'0xde'
p290
sS'low_fuses'
p291
S'0xff'
p292
sS'lock_bits'
p293
S'0x0F'
p294
sS'file'
p295
S'optiboot_atmega328.hex'
p296
sS'path'
p297
S'optiboot'
p298
sS'unlock_bits'
p299
S'0x3F'
p300
ssS'upload'
p301
(dp302
S'protocol'
p303
S'arduino'
p304
sS'maximum_size'
p305
S'32256'
p306
sS'speed'
p307
S'115200'
p308
ssS'build'
p309
(dp310
S'core'
p311
S'arduino'
p312
sS'mcu'
p313
S'atmega328p'
p314
sS'f_cpu'
p315
S'16000000L'
p316
sS'variant'
p317
S'standard'
p318
ssS'name'
p319
S'Arduino Uno'
p320
saa(lp321
S'atmega328'
p322
a(dp323
S'bootloader'
p324
(dp325
S'extended_fuses'
p326
S'0x05'
p327
sS'high_fuses'
p328
S'0xDA'
p329
sS'low_fuses'
p330
S'0xFF'
p331
sS'lock_bits'
p332
S'0x0F'
p333
sS'file'
p334
S'ATmegaBOOT_168_atmega328.hex'
p335
sS'path'
p336
S'atmega'
p337
sS'unlock_bits'
p338
S'0x3F'
p339
ssS'upload'
p340
(dp341
S'protocol'
p342
S'arduino'
p343
sS'maximum_size'
p344
S'30720'
p345
sS'speed'
p346
S'57600'
p347
ssS'build'
p348
(dp349
S'core'
p350
S'arduino'
p351
sS'mcu'
p352
S'atmega328p'
p353
sS'f_cpu'
p354
S'16000000L'
p355
sS'variant'
p356
S'standard'
p357
ssS'name'
p358
S'Arduino Duemilanove w/ ATmega328'
p359
saa(lp360
S'diecimila'
p361
a(dp362
S'bootloader'
p363
(dp364
S'extended_fuses'
p365
S'0x00'
p366
sS'high_fuses'
p367
S'0xdd'
p368
sS'low_fuses'
p369
S'0xff'
p370
sS'lock_bits'
p371
S'0x0F'
p372
sS'file'
p373
S'ATmegaBOOT_168_diecimila.hex'
p374
sS'path'
p375
S'atmega'
p376
sS'unlock_bits'
p377
S'0x3F'
p378
ssS'upload'
p379
(dp380
S'protocol'
p381
S'arduino'
p382
sS'maximum_size'
p383
S'14336'
p384
sS'speed'
p385
S'19200'
p386
ssS'build'
p387
(dp388
S'core'
p389
S'arduino'
p390
sS'mcu'
p391
S'atmega168'
p392
sS'f_cpu'
p393
S'16000000L'
p394
sS'variant'
p395
S'standard'
p396
ssS'name'
p397
S'Arduino Diecimila or Duemilanove w/ ATmega168'
p398
saa(lp399
S'nano328'
p400
a(dp401
S'bootloader'
p402
(dp403
S'extended_fuses'
p404
S'0x05'
p405
sS'high_fuses'
p406
S'0xDA'
p407
sS'low_fuses'
p408
S'0xFF'
p409
sS'lock_bits'
p410
S'0x0F'
p411
sS'file'
p412
S'ATmegaBOOT_168_atmega328.hex'
p413
sS'path'
p414
S'atmega'
p415
sS'unlock_bits'
p416
S'0x3F'
p417
ssS'upload'
p418
(dp419
S'protocol'
p420
S'arduino'
p421
sS'maximum_size'
p422
S'30720'
p423
sS'speed'
p424
S'57600'
p425
ssS'build'
p426
(dp427
S'core'
p428
S'arduino'
p429
sS'mcu'
p430
S'atmega328p'
p431
sS'f_cpu'
p432
S'16000000L'
p433
sS'variant'
p434
S'eightanaloginputs'
p435
ssS'name'
p436
S'Arduino Nano w/ ATmega328'
p437
saa(lp438
S'nano'
p439
a(dp440
S'bootloader'
p441
(dp442
S'extended_fuses'
p443
S'0x00'
p444
sS'high_fuses'
p445
S'0xdd'
p446
sS'low_fuses'
p447
S'0xff'
p448
sS'lock_bits'
p449
S'0x0F'
p450
sS'file'
p451
S'ATmegaBOOT_168_diecimila.hex'
p452
sS'path'
p453
S'atmega'
p454
sS'unlock_bits'
p455
S'0x3F'
p456
ssS'upload'
p457
(dp458
S'protocol'
p459
S'arduino'
p460
sS'maximum_size'
p461
S'14336'
p462
sS'speed'
p463
S'19200'
p464
ssS'build'
p465
(dp466
S'core'
p467
S'arduino'
p468
sS'mcu'
p469
S'atmega168'
p470
sS'f_cpu'
p471
S'16000000L'
p472
sS'variant'
p473
S'eightanaloginputs'
p474
ssS'name'
p475
S'Arduino Nano w/ ATmega168'
p476
saa(lp477
S'mega2560'
p478
a(dp479
S'bootloader'
p480
(dp481
S'extended_fuses'
p482
S'0xFD'
p483
sS'high_fuses'
p484
S'0xD8'
p485
sS'low_fuses'
p486
S'0xFF'
p487
sS'lock_bits'
p488
S'0x0F'
p489
sS'file'
p490
S'stk500boot_v2_mega2560.hex'
p491
sS'path'
p492
S'stk500v2'
p493
sS'unlock_bits'
p494
S'0x3F'
p495
ssS'upload'
p496
(dp497
S'protocol'
p498
S'stk500v2'
p499
sS'maximum_size'
p500
S'258048'
p501
sS'speed'
p502
S'115200'
p503
ssS'build'
p504
(dp505
S'core'
p506
S'arduino'
p507
sS'mcu'
p508
S'atmega2560'
p509
sS'f_cpu'
p510
S'16000000L'
p511
sS'variant'
p512
S'mega'
p513
ssS'name'
p514
S'Arduino Mega 2560 or Mega ADK'
p515
saa(lp516
S'mega'
p517
a(dp518
S'bootloader'
p519
(dp520
S'extended_fuses'
p521
S'0xF5'
p522
sS'high_fuses'
p523
S'0xDA'
p524
sS'low_fuses'
p525
S'0xFF'
p526
sS'lock_bits'
p527
S'0x0F'
p528
sS'file'
p529
S'ATmegaBOOT_168_atmega1280.hex'
p530
sS'path'
p531
S'atmega'
p532
sS'unlock_bits'
p533
S'0x3F'
p534
ssS'upload'
p535
(dp536
S'protocol'
p537
S'arduino'
p538
sS'maximum_size'
p539
S'126976'
p540
sS'speed'
p541
S'57600'
p542
ssS'build'
p543
(dp544
S'core'
p545
S'arduino'
p546
sS'mcu'
p547
S'atmega1280'
p548
sS'f_cpu'
p549
S'16000000L'
p550
sS'variant'
p551
S'mega'
p552
ssS'name'
p553
S'Arduino Mega (ATmega1280)'
p554
saa(lp555
S'leonardo'
p556
a(dp557
S'bootloader'
p558
(dp559
S'extended_fuses'
p560
S'0xcb'
p561
sS'high_fuses'
p562
S'0xd8'
p563
sS'low_fuses'
p564
S'0xff'
p565
sS'lock_bits'
p566
S'0x2F'
p567
sS'file'
p568
S'Caterina-Leonardo.hex'
p569
sS'path'
p570
S'caterina'
p571
sS'unlock_bits'
p572
S'0x3F'
p573
ssS'upload'
p574
(dp575
S'protocol'
p576
S'avr109'
p577
sS'maximum_size'
p578
S'28672'
p579
sS'speed'
p580
S'57600'
p581
sS'disable_flushing'
p582
S'true'
p583
ssS'build'
p584
(dp585
S'core'
p586
S'arduino'
p587
sS'f_cpu'
p588
S'16000000L'
p589
sS'vid'
p590
S'0x2341'
p591
sS'pid'
p592
S'0x8036'
p593
sS'variant'
p594
S'leonardo'
p595
sS'mcu'
p596
S'atmega32u4'
p597
ssS'name'
p598
S'Arduino Leonardo'
p599
saa(lp600
S'mini328'
p601
a(dp602
S'bootloader'
p603
(dp604
S'extended_fuses'
p605
S'0x05'
p606
sS'high_fuses'
p607
S'0xd8'
p608
sS'low_fuses'
p609
S'0xff'
p610
sS'lock_bits'
p611
S'0x0F'
p612
sS'file'
p613
S'optiboot_atmega328-Mini.hex'
p614
sS'path'
p615
S'optiboot'
p616
sS'unlock_bits'
p617
S'0x3F'
p618
ssS'upload'
p619
(dp620
S'protocol'
p621
S'arduino'
p622
sS'maximum_size'
p623
S'28672'
p624
sS'speed'
p625
S'115200'
p626
ssS'build'
p627
(dp628
S'core'
p629
S'arduino'
p630
sS'mcu'
p631
S'atmega328p'
p632
sS'f_cpu'
p633
S'16000000L'
p634
sS'variant'
p635
S'eightanaloginputs'
p636
ssS'name'
p637
S'Arduino Mini w/ ATmega328'
p638
saa(lp639
S'mini'
p640
a(dp641
S'bootloader'
p642
(dp643
S'extended_fuses'
p644
S'0x00'
p645
sS'high_fuses'
p646
S'0xdd'
p647
sS'low_fuses'
p648
S'0xff'
p649
sS'lock_bits'
p650
S'0x0F'
p651
sS'file'
p652
S'ATmegaBOOT_168_ng.hex'
p653
sS'path'
p654
S'atmega'
p655
sS'unlock_bits'
p656
S'0x3F'
p657
ssS'upload'
p658
(dp659
S'protocol'
p660
S'arduino'
p661
sS'maximum_size'
p662
S'14336'
p663
sS'speed'
p664
S'19200'
p665
ssS'build'
p666
(dp667
S'core'
p668
S'arduino'
p669
sS'mcu'
p670
S'atmega168'
p671
sS'f_cpu'
p672
S'16000000L'
p673
sS'variant'
p674
S'eightanaloginputs'
p675
ssS'name'
p676
S'Arduino Mini w/ ATmega168'
p677
saa(lp678
S'ethernet'
p679
a(dp680
S'bootloader'
p681
(dp682
S'extended_fuses'
p683
S'0x05'
p684
sS'high_fuses'
p685
S'0xde'
p686
sS'low_fuses'
p687
S'0xff'
p688
sS'lock_bits'
p689
S'0x0F'
p690
sS'file'
p691
S'optiboot_atmega328.hex'
p692
sS'path'
p693
S'optiboot'
p694
sS'unlock_bits'
p695
S'0x3F'
p696
ssS'upload'
p697
(dp698
S'protocol'
p699
S'arduino'
p700
sS'maximum_size'
p701
S'32256'
p702
sS'speed'
p703
S'115200'
p704
ssS'build'
p705
(dp706
S'variant'
p707
S'standard'
p708
sS'mcu'
p709
S'atmega328p'
p710
sS'f_cpu'
p711
S'16000000L'
p712
sS'core'
p713
S'arduino'
p714
ssS'name'
p715
S'Arduino Ethernet'
p716
saa(lp717
S'fio'
p718
a(dp719
S'bootloader'
p720
(dp721
S'extended_fuses'
p722
S'0x05'
p723
sS'high_fuses'
p724
S'0xDA'
p725
sS'low_fuses'
p726
S'0xFF'
p727
sS'lock_bits'
p728
S'0x0F'
p729
sS'file'
p730
S'ATmegaBOOT_168_atmega328_pro_8MHz.hex'
p731
sS'path'
p732
S'arduino:atmega'
p733
sS'unlock_bits'
p734
S'0x3F'
p735
ssS'upload'
p736
(dp737
S'protocol'
p738
S'arduino'
p739
sS'maximum_size'
p740
S'30720'
p741
sS'speed'
p742
S'57600'
p743
ssS'build'
p744
(dp745
S'core'
p746
S'arduino'
p747
sS'mcu'
p748
S'atmega328p'
p749
sS'f_cpu'
p750
S'8000000L'
p751
sS'variant'
p752
S'eightanaloginputs'
p753
ssS'name'
p754
S'Arduino Fio'
p755
saa(lp756
S'bt328'
p757
a(dp758
S'bootloader'
p759
(dp760
S'extended_fuses'
p761
S'0x05'
p762
sS'high_fuses'
p763
S'0xd8'
p764
sS'low_fuses'
p765
S'0xff'
p766
sS'lock_bits'
p767
S'0x0F'
p768
sS'file'
p769
S'ATmegaBOOT_168_atmega328_bt.hex'
p770
sS'path'
p771
S'bt'
p772
sS'unlock_bits'
p773
S'0x3F'
p774
ssS'upload'
p775
(dp776
S'protocol'
p777
S'arduino'
p778
sS'maximum_size'
p779
S'28672'
p780
sS'speed'
p781
S'19200'
p782
sS'disable_flushing'
p783
S'true'
p784
ssS'build'
p785
(dp786
S'core'
p787
S'arduino'
p788
sS'mcu'
p789
S'atmega328p'
p790
sS'f_cpu'
p791
S'16000000L'
p792
sS'variant'
p793
S'eightanaloginputs'
p794
ssS'name'
p795
S'Arduino BT w/ ATmega328'
p796
saa(lp797
S'bt'
p798
a(dp799
S'bootloader'
p800
(dp801
S'extended_fuses'
p802
S'0x00'
p803
sS'high_fuses'
p804
S'0xdd'
p805
sS'low_fuses'
p806
S'0xff'
p807
sS'lock_bits'
p808
S'0x0F'
p809
sS'file'
p810
S'ATmegaBOOT_168.hex'
p811
sS'path'
p812
S'bt'
p813
sS'unlock_bits'
p814
S'0x3F'
p815
ssS'upload'
p816
(dp817
S'protocol'
p818
S'arduino'
p819
sS'maximum_size'
p820
S'14336'
p821
sS'speed'
p822
S'19200'
p823
sS'disable_flushing'
p824
S'true'
p825
ssS'build'
p826
(dp827
S'core'
p828
S'arduino'
p829
sS'mcu'
p830
S'atmega168'
p831
sS'f_cpu'
p832
S'16000000L'
p833
sS'variant'
p834
S'eightanaloginputs'
p835
ssS'name'
p836
S'Arduino BT w/ ATmega168'
p837
saa(lp838
S'lilypad328'
p839
a(dp840
S'bootloader'
p841
(dp842
S'extended_fuses'
p843
S'0x05'
p844
sS'high_fuses'
p845
S'0xDA'
p846
sS'low_fuses'
p847
S'0xFF'
p848
sS'lock_bits'
p849
S'0x0F'
p850
sS'file'
p851
S'ATmegaBOOT_168_atmega328_pro_8MHz.hex'
p852
sS'path'
p853
S'atmega'
p854
sS'unlock_bits'
p855
S'0x3F'
p856
ssS'upload'
p857
(dp858
S'protocol'
p859
S'arduino'
p860
sS'maximum_size'
p861
S'30720'
p862
sS'speed'
p863
S'57600'
p864
ssS'build'
p865
(dp866
S'core'
p867
S'arduino'
p868
sS'mcu'
p869
S'atmega328p'
p870
sS'f_cpu'
p871
S'8000000L'
p872
sS'variant'
p873
S'standard'
p874
ssS'name'
p875
S'LilyPad Arduino w/ ATmega328'
p876
saa(lp877
S'lilypad'
p878
a(dp879
S'bootloader'
p880
(dp881
S'extended_fuses'
p882
S'0x00'
p883
sS'high_fuses'
p884
S'0xdd'
p885
sS'low_fuses'
p886
S'0xe2'
p887
sS'lock_bits'
p888
S'0x0F'
p889
sS'file'
p890
S'LilyPadBOOT_168.hex'
p891
sS'path'
p892
S'lilypad'
p893
sS'unlock_bits'
p894
S'0x3F'
p895
ssS'upload'
p896
(dp897
S'protocol'
p898
S'arduino'
p899
sS'maximum_size'
p900
S'14336'
p901
sS'speed'
p902
S'19200'
p903
ssS'build'
p904
(dp905
S'core'
p906
S'arduino'
p907
sS'mcu'
p908
S'atmega168'
p909
sS'f_cpu'
p910
S'8000000L'
p911
sS'variant'
p912
S'standard'
p913
ssS'name'
p914
S'LilyPad Arduino w/ ATmega168'
p915
saa(lp916
S'pro5v328'
p917
a(dp918
S'bootloader'
p919
(dp920
S'extended_fuses'
p921
S'0x05'
p922
sS'high_fuses'
p923
S'0xDA'
p924
sS'low_fuses'
p925
S'0xFF'
p926
sS'lock_bits'
p927
S'0x0F'
p928
sS'file'
p929
S'ATmegaBOOT_168_atmega328.hex'
p930
sS'path'
p931
S'atmega'
p932
sS'unlock_bits'
p933
S'0x3F'
p934
ssS'upload'
p935
(dp936
S'protocol'
p937
S'arduino'
p938
sS'maximum_size'
p939
S'30720'
p940
sS'speed'
p941
S'57600'
p942
ssS'build'
p943
(dp944
S'core'
p945
S'arduino'
p946
sS'mcu'
p947
S'atmega328p'
p948
sS'f_cpu'
p949
S'16000000L'
p950
sS'variant'
p951
S'standard'
p952
ssS'name'
p953
S'Arduino Pro or Pro Mini (5V, 16 MHz) w/ ATmega328'
p954
saa(lp955
S'pro5v'
p956
a(dp957
S'bootloader'
p958
(dp959
S'extended_fuses'
p960
S'0x00'
p961
sS'high_fuses'
p962
S'0xdd'
p963
sS'low_fuses'
p964
S'0xff'
p965
sS'lock_bits'
p966
S'0x0F'
p967
sS'file'
p968
S'ATmegaBOOT_168_diecimila.hex'
p969
sS'path'
p970
S'atmega'
p971
sS'unlock_bits'
p972
S'0x3F'
p973
ssS'upload'
p974
(dp975
S'protocol'
p976
S'arduino'
p977
sS'maximum_size'
p978
S'14336'
p979
sS'speed'
p980
S'19200'
p981
ssS'build'
p982
(dp983
S'core'
p984
S'arduino'
p985
sS'mcu'
p986
S'atmega168'
p987
sS'f_cpu'
p988
S'16000000L'
p989
sS'variant'
p990
S'standard'
p991
ssS'name'
p992
S'Arduino Pro or Pro Mini (5V, 16 MHz) w/ ATmega168'
p993
saa(lp994
S'pro328'
p995
a(dp996
S'bootloader'
p997
(dp998
S'extended_fuses'
p999
S'0x05'
p1000
sS'high_fuses'
p1001
S'0xDA'
p1002
sS'low_fuses'
p1003
S'0xFF'
p1004
sS'lock_bits'
p1005
S'0x0F'
p1006
sS'file'
p1007
S'ATmegaBOOT_168_atmega328_pro_8MHz.hex'
p1008
sS'path'
p1009
S'atmega'
p1010
sS'unlock_bits'
p1011
S'0x3F'
p1012
ssS'upload'
p1013
(dp1014
S'protocol'
p1015
S'arduino'
p1016
sS'maximum_size'
p1017
S'30720'
p1018
sS'speed'
p1019
S'57600'
p1020
ssS'build'
p1021
(dp1022
S'core'
p1023
S'arduino'
p1024
sS'mcu'
p1025
S'atmega328p'
p1026
sS'f_cpu'
p1027
S'8000000L'
p1028
sS'variant'
p1029
S'standard'
p1030
ssS'name'
p1031
S'Arduino Pro or Pro Mini (3.3V, 8 MHz) w/ ATmega328'
p1032
saa(lp1033
S'pro'
p1034
a(dp1035
S'bootloader'
p1036
(dp1037
S'extended_fuses'
p1038
S'0x00'
p1039
sS'high_fuses'
p1040
S'0xdd'
p1041
sS'low_fuses'
p1042
S'0xc6'
p1043
sS'lock_bits'
p1044
S'0x0F'
p1045
sS'file'
p1046
S'ATmegaBOOT_168_pro_8MHz.hex'
p1047
sS'path'
p1048
S'atmega'
p1049
sS'unlock_bits'
p1050
S'0x3F'
p1051
ssS'upload'
p1052
(dp1053
S'protocol'
p1054
S'arduino'
p1055
sS'maximum_size'
p1056
S'14336'
p1057
sS'speed'
p1058
S'19200'
p1059
ssS'build'
p1060
(dp1061
S'core'
p1062
S'arduino'
p1063
sS'mcu'
p1064
S'atmega168'
p1065
sS'f_cpu'
p1066
S'8000000L'
p1067
sS'variant'
p1068
S'standard'
p1069
ssS'name'
p1070
S'Arduino Pro or Pro Mini (3.3V, 8 MHz) w/ ATmega168'
p1071
saa(lp1072
S'atmega168'
p1073
a(dp1074
S'bootloader'
p1075
(dp1076
S'extended_fuses'
p1077
S'0x00'
p1078
sS'high_fuses'
p1079
S'0xdd'
p1080
sS'low_fuses'
p1081
S'0xff'
p1082
sS'lock_bits'
p1083
S'0x0F'
p1084
sS'file'
p1085
S'ATmegaBOOT_168_ng.hex'
p1086
sS'path'
p1087
S'atmega'
p1088
sS'unlock_bits'
p1089
S'0x3F'
p1090
ssS'upload'
p1091
(dp1092
S'protocol'
p1093
S'arduino'
p1094
sS'maximum_size'
p1095
S'14336'
p1096
sS'speed'
p1097
S'19200'
p1098
ssS'build'
p1099
(dp1100
S'core'
p1101
S'arduino'
p1102
sS'mcu'
p1103
S'atmega168'
p1104
sS'f_cpu'
p1105
S'16000000L'
p1106
sS'variant'
p1107
S'standard'
p1108
ssS'name'
p1109
S'Arduino NG or older w/ ATmega168'
p1110
saa(lp1111
S'atmega8'
p1112
a(dp1113
S'bootloader'
p1114
(dp1115
S'high_fuses'
p1116
S'0xca'
p1117
sS'low_fuses'
p1118
S'0xdf'
p1119
sS'lock_bits'
p1120
S'0x0F'
p1121
sS'file'
p1122
S'ATmegaBOOT.hex'
p1123
sS'path'
p1124
S'atmega8'
p1125
sS'unlock_bits'
p1126
S'0x3F'
p1127
ssS'upload'
p1128
(dp1129
S'protocol'
p1130
S'arduino'
p1131
sS'maximum_size'
p1132
S'7168'
p1133
sS'speed'
p1134
S'19200'
p1135
ssS'build'
p1136
(dp1137
S'core'
p1138
S'arduino'
p1139
sS'mcu'
p1140
S'atmega8'
p1141
sS'f_cpu'
p1142
S'16000000L'
p1143
sS'variant'
p1144
S'standard'
p1145
ssS'name'
p1146
S'Arduino NG or older w/ ATmega8'
p1147
saatp1148
Rp1149
(dp1150
S'default'
p1151
S'uno'
p1152
sbtp1153
a(S'used_libs'
p1154
(lp1155
S'lib/Adafruit_MotorShield'
p1156
aS'/usr/share/arduino/libraries/Wire'
p1157
aS'/usr/share/arduino/hardware/arduino/cores/arduino'
p1158
atp1159
a(S'make'
p1160
S'/usr/bin/make'
p1161
tp1162
a(S'build_dir'
p1163
S'.build/gertduino328'
p1164
tp1165
a(S'cc'
p1166
S'/usr/bin/avr-gcc'
p1167
tp1168
a(S'cflags'
p1169
g2
(g3
g4
(lp1170
tp1171
Rp1172
tp1173
a(S'cxxflags'
p1174
g2
(g3
g4
(lp1175
S'-fno-exceptions'
p1176
atp1177
Rp1178
tp1179
a(S'arduino_variants_dir'
p1180
S'/usr/share/arduino/hardware/arduino/variants'
p1181
tp1182
a(S'stty'
p1183
S'/bin/stty'
p1184
tp1185
a(S'version.txt'
p1186
S'/usr/share/arduino/lib/version.txt'
p1187
tp1188
a(S'arduino_core_dir'
p1189
g1158
tp1190
a(S'boards.txt'
p1191
S'/usr/share/arduino/hardware/arduino/boards.txt'
p1192
tp1193
a(S'avrdude.conf'
p1194
S'/usr/share/arduino/hardware/tools/avrdude.conf'
p1195
tp1196
a(g44
g2
(g3
g4
(lp1197
S'.build/gertduino328/src/dependencies.d'
p1198
aS'.build/gertduino328/arduino/dependencies.d'
p1199
aS'.build/gertduino328/Adafruit_MotorShield/dependencies.d'
p1200
aS'.build/gertduino328/Wire/dependencies.d'
p1201
atp1202
Rp1203
tp1204
a.