(lp0
(S'cppflags'
p1
ccopy_reg
_reconstructor
p2
(cino.utils
SpaceList
p3
c__builtin__
list
p4
(lp5
S'-mmcu=atmega328p'
p6
aS'-DF_CPU=16000000L'
p7
aS'-DARDUINO=101'
p8
aS'-I/usr/share/arduino/hardware/arduino/cores/arduino'
p9
aS'-ffunction-sections'
p10
aS'-fdata-sections'
p11
aS'-g'
p12
aS'-Os'
p13
aS'-w'
p14
aS'-I/usr/share/arduino/hardware/arduino/variants/standard'
p15
aS'-Ilib/Adafruit_MotorShield'
p16
aS'-Ilib/Adafruit_MotorShield/utility'
p17
aS'-I/usr/share/arduino/libraries/Wire'
p18
aS'-I/usr/share/arduino/libraries/Wire/utility'
p19
aS'-I/usr/share/arduino/hardware/arduino/cores/arduino'
p20
atp21
Rp22
tp23
a(S'cxx'
p24
S'/usr/bin/avr-g++'
p25
tp26
a(S'build_dir'
p27
S'.build/gertduino328'
p28
tp29
a(S'avrdude'
p30
S'/usr/share/arduino/hardware/tools/avrdude'
p31
tp32
a(S'ar'
p33
S'/usr/bin/avr-ar'
p34
tp35
a(S'names'
p36
(dp37
S'cpp'
p38
S'%s.cpp'
p39
sS'obj'
p40
S'%s.o'
p41
sS'deps'
p42
S'%s.d'
p43
sS'lib'
p44
S'lib%s.a'
p45
stp46
a(S'ldflags'
p47
g2
(g3
g4
(lp48
g6
aS'-Wl,-Os'
p49
aS'-Wl,--gc-sections'
p50
atp51
Rp52
tp53
a(S'arduino_lib_version'
p54
g2
(cino.environment
Version
p55
c__builtin__
tuple
p56
(I1
I0
I1
tp57
tp58
Rp59
tp60
a(S'objcopy'
p61
S'/usr/bin/avr-objcopy'
p62
tp63
a(S'board_models'
p64
cino.environment
BoardModels
p65
((lp66
(lp67
S'gertduino48'
p68
a(dp69
S'build'
p70
(dp71
S'core'
p72
S'arduino'
p73
sS'mcu'
p74
S'atmega48p'
p75
sS'f_cpu'
p76
S'8000000L'
p77
sS'variant'
p78
S'standard'
p79
ssS'bootloader'
p80
(dp81
S'extended_fuses'
p82
S'0x01'
p83
sS'high_fuses'
p84
S'0xDF'
p85
sS'low_fuses'
p86
S'0xE2'
p87
sS'lock_bits'
p88
S'0x0F'
p89
sS'file'
p90
S'ATmegaBOOT_48_gert48.hex'
p91
sS'path'
p92
S'atmega'
p93
sS'unlock_bits'
p94
S'0x3F'
p95
ssS'upload'
p96
(dp97
S'using'
p98
S'gpio'
p99
sS'maximum_size'
p100
S'4096'
p101
sS'protocol'
p102
S'gpio'
p103
sS'disable_flushing'
p104
S'true'
p105
sS'speed'
p106
S'57600'
p107
ssS'name'
p108
S'Gertuino ATmega44 (GPIO)'
p109
saa(lp110
S'gertduino328'
p111
a(dp112
S'build'
p113
(dp114
S'core'
p115
S'arduino'
p116
sS'mcu'
p117
S'atmega328p'
p118
sS'f_cpu'
p119
S'16000000L'
p120
sS'variant'
p121
S'standard'
p122
ssS'bootloader'
p123
(dp124
S'extended_fuses'
p125
S'0x07'
p126
sS'high_fuses'
p127
S'0xDA'
p128
sS'low_fuses'
p129
S'0xE7'
p130
sS'lock_bits'
p131
S'0x0F'
p132
sS'file'
p133
S'ATmegaBOOT_168_gert328.hex'
p134
sS'path'
p135
S'atmega'
p136
sS'unlock_bits'
p137
S'0x3F'
p138
ssS'upload'
p139
(dp140
S'using'
p141
S'gpio'
p142
sS'maximum_size'
p143
S'32768'
p144
sS'protocol'
p145
S'gpio'
p146
sS'disable_flushing'
p147
S'true'
p148
sS'speed'
p149
S'57600'
p150
ssS'name'
p151
S'Gertuino with ATmega328 (GPIO)'
p152
saa(lp153
S'gertduino168'
p154
a(dp155
S'build'
p156
(dp157
S'core'
p158
S'arduino'
p159
sS'mcu'
p160
S'atmega168'
p161
sS'f_cpu'
p162
S'16000000L'
p163
sS'variant'
p164
S'standard'
p165
ssS'bootloader'
p166
(dp167
S'extended_fuses'
p168
S'0x07'
p169
sS'high_fuses'
p170
S'0xDA'
p171
sS'low_fuses'
p172
S'0xE7'
p173
sS'lock_bits'
p174
S'0x0F'
p175
sS'file'
p176
S'ATmegaBOOT_168_gert168.hex'
p177
sS'path'
p178
S'atmega'
p179
sS'unlock_bits'
p180
S'0x3F'
p181
ssS'upload'
p182
(dp183
S'using'
p184
S'gpio'
p185
sS'maximum_size'
p186
S'16384'
p187
sS'protocol'
p188
S'gpio'
p189
sS'disable_flushing'
p190
S'true'
p191
sS'speed'
p192
S'57600'
p193
ssS'name'
p194
S'Gertduino with ATmega168 (GPIO)'
p195
saa(lp196
S'gert328'
p197
a(dp198
S'build'
p199
(dp200
S'core'
p201
S'arduino'
p202
sS'mcu'
p203
S'atmega328p'
p204
sS'f_cpu'
p205
S'12000000L'
p206
sS'variant'
p207
S'standard'
p208
ssS'bootloader'
p209
(dp210
S'extended_fuses'
p211
S'0x07'
p212
sS'high_fuses'
p213
S'0xDA'
p214
sS'low_fuses'
p215
S'0xE7'
p216
sS'lock_bits'
p217
S'0x0F'
p218
sS'file'
p219
S'ATmegaBOOT_168_gert328.hex'
p220
sS'path'
p221
S'atmega'
p222
sS'unlock_bits'
p223
S'0x3F'
p224
ssS'upload'
p225
(dp226
S'using'
p227
S'gpio'
p228
sS'maximum_size'
p229
S'32768'
p230
sS'protocol'
p231
S'gpio'
p232
sS'disable_flushing'
p233
S'true'
p234
sS'speed'
p235
S'57600'
p236
ssS'name'
p237
S'Gertboard with ATmega328 (GPIO)'
p238
saa(lp239
S'gert168'
p240
a(dp241
S'build'
p242
(dp243
S'core'
p244
S'arduino'
p245
sS'mcu'
p246
S'atmega168'
p247
sS'f_cpu'
p248
S'12000000L'
p249
sS'variant'
p250
S'standard'
p251
ssS'bootloader'
p252
(dp253
S'extended_fuses'
p254
S'0x07'
p255
sS'high_fuses'
p256
S'0xDA'
p257
sS'low_fuses'
p258
S'0xE7'
p259
sS'lock_bits'
p260
S'0x0F'
p261
sS'file'
p262
S'ATmegaBOOT_168_gert168.hex'
p263
sS'path'
p264
S'atmega'
p265
sS'unlock_bits'
p266
S'0x3F'
p267
ssS'upload'
p268
(dp269
S'using'
p270
S'gpio'
p271
sS'maximum_size'
p272
S'16384'
p273
sS'protocol'
p274
S'gpio'
p275
sS'disable_flushing'
p276
S'true'
p277
sS'speed'
p278
S'57600'
p279
ssS'name'
p280
S'Gertboard with ATmega168 (GPIO)'
p281
saa(lp282
S'uno'
p283
a(dp284
S'build'
p285
(dp286
S'core'
p287
S'arduino'
p288
sS'mcu'
p289
S'atmega328p'
p290
sS'f_cpu'
p291
S'16000000L'
p292
sS'variant'
p293
S'standard'
p294
ssS'bootloader'
p295
(dp296
S'extended_fuses'
p297
S'0x05'
p298
sS'high_fuses'
p299
S'0xde'
p300
sS'low_fuses'
p301
S'0xff'
p302
sS'lock_bits'
p303
S'0x0F'
p304
sS'file'
p305
S'optiboot_atmega328.hex'
p306
sS'path'
p307
S'optiboot'
p308
sS'unlock_bits'
p309
S'0x3F'
p310
ssS'upload'
p311
(dp312
S'protocol'
p313
S'arduino'
p314
sS'maximum_size'
p315
S'32256'
p316
sS'speed'
p317
S'115200'
p318
ssS'name'
p319
S'Arduino Uno'
p320
saa(lp321
S'atmega328'
p322
a(dp323
S'build'
p324
(dp325
S'core'
p326
S'arduino'
p327
sS'mcu'
p328
S'atmega328p'
p329
sS'f_cpu'
p330
S'16000000L'
p331
sS'variant'
p332
S'standard'
p333
ssS'bootloader'
p334
(dp335
S'extended_fuses'
p336
S'0x05'
p337
sS'high_fuses'
p338
S'0xDA'
p339
sS'low_fuses'
p340
S'0xFF'
p341
sS'lock_bits'
p342
S'0x0F'
p343
sS'file'
p344
S'ATmegaBOOT_168_atmega328.hex'
p345
sS'path'
p346
S'atmega'
p347
sS'unlock_bits'
p348
S'0x3F'
p349
ssS'upload'
p350
(dp351
S'protocol'
p352
S'arduino'
p353
sS'maximum_size'
p354
S'30720'
p355
sS'speed'
p356
S'57600'
p357
ssS'name'
p358
S'Arduino Duemilanove w/ ATmega328'
p359
saa(lp360
S'diecimila'
p361
a(dp362
S'build'
p363
(dp364
S'core'
p365
S'arduino'
p366
sS'mcu'
p367
S'atmega168'
p368
sS'f_cpu'
p369
S'16000000L'
p370
sS'variant'
p371
S'standard'
p372
ssS'bootloader'
p373
(dp374
S'extended_fuses'
p375
S'0x00'
p376
sS'high_fuses'
p377
S'0xdd'
p378
sS'low_fuses'
p379
S'0xff'
p380
sS'lock_bits'
p381
S'0x0F'
p382
sS'file'
p383
S'ATmegaBOOT_168_diecimila.hex'
p384
sS'path'
p385
S'atmega'
p386
sS'unlock_bits'
p387
S'0x3F'
p388
ssS'upload'
p389
(dp390
S'protocol'
p391
S'arduino'
p392
sS'maximum_size'
p393
S'14336'
p394
sS'speed'
p395
S'19200'
p396
ssS'name'
p397
S'Arduino Diecimila or Duemilanove w/ ATmega168'
p398
saa(lp399
S'nano328'
p400
a(dp401
S'build'
p402
(dp403
S'core'
p404
S'arduino'
p405
sS'mcu'
p406
S'atmega328p'
p407
sS'f_cpu'
p408
S'16000000L'
p409
sS'variant'
p410
S'eightanaloginputs'
p411
ssS'bootloader'
p412
(dp413
S'extended_fuses'
p414
S'0x05'
p415
sS'high_fuses'
p416
S'0xDA'
p417
sS'low_fuses'
p418
S'0xFF'
p419
sS'lock_bits'
p420
S'0x0F'
p421
sS'file'
p422
S'ATmegaBOOT_168_atmega328.hex'
p423
sS'path'
p424
S'atmega'
p425
sS'unlock_bits'
p426
S'0x3F'
p427
ssS'upload'
p428
(dp429
S'protocol'
p430
S'arduino'
p431
sS'maximum_size'
p432
S'30720'
p433
sS'speed'
p434
S'57600'
p435
ssS'name'
p436
S'Arduino Nano w/ ATmega328'
p437
saa(lp438
S'nano'
p439
a(dp440
S'build'
p441
(dp442
S'core'
p443
S'arduino'
p444
sS'mcu'
p445
S'atmega168'
p446
sS'f_cpu'
p447
S'16000000L'
p448
sS'variant'
p449
S'eightanaloginputs'
p450
ssS'bootloader'
p451
(dp452
S'extended_fuses'
p453
S'0x00'
p454
sS'high_fuses'
p455
S'0xdd'
p456
sS'low_fuses'
p457
S'0xff'
p458
sS'lock_bits'
p459
S'0x0F'
p460
sS'file'
p461
S'ATmegaBOOT_168_diecimila.hex'
p462
sS'path'
p463
S'atmega'
p464
sS'unlock_bits'
p465
S'0x3F'
p466
ssS'upload'
p467
(dp468
S'protocol'
p469
S'arduino'
p470
sS'maximum_size'
p471
S'14336'
p472
sS'speed'
p473
S'19200'
p474
ssS'name'
p475
S'Arduino Nano w/ ATmega168'
p476
saa(lp477
S'mega2560'
p478
a(dp479
S'build'
p480
(dp481
S'core'
p482
S'arduino'
p483
sS'mcu'
p484
S'atmega2560'
p485
sS'f_cpu'
p486
S'16000000L'
p487
sS'variant'
p488
S'mega'
p489
ssS'bootloader'
p490
(dp491
S'extended_fuses'
p492
S'0xFD'
p493
sS'high_fuses'
p494
S'0xD8'
p495
sS'low_fuses'
p496
S'0xFF'
p497
sS'lock_bits'
p498
S'0x0F'
p499
sS'file'
p500
S'stk500boot_v2_mega2560.hex'
p501
sS'path'
p502
S'stk500v2'
p503
sS'unlock_bits'
p504
S'0x3F'
p505
ssS'upload'
p506
(dp507
S'protocol'
p508
S'stk500v2'
p509
sS'maximum_size'
p510
S'258048'
p511
sS'speed'
p512
S'115200'
p513
ssS'name'
p514
S'Arduino Mega 2560 or Mega ADK'
p515
saa(lp516
S'mega'
p517
a(dp518
S'build'
p519
(dp520
S'core'
p521
S'arduino'
p522
sS'mcu'
p523
S'atmega1280'
p524
sS'f_cpu'
p525
S'16000000L'
p526
sS'variant'
p527
S'mega'
p528
ssS'bootloader'
p529
(dp530
S'extended_fuses'
p531
S'0xF5'
p532
sS'high_fuses'
p533
S'0xDA'
p534
sS'low_fuses'
p535
S'0xFF'
p536
sS'lock_bits'
p537
S'0x0F'
p538
sS'file'
p539
S'ATmegaBOOT_168_atmega1280.hex'
p540
sS'path'
p541
S'atmega'
p542
sS'unlock_bits'
p543
S'0x3F'
p544
ssS'upload'
p545
(dp546
S'protocol'
p547
S'arduino'
p548
sS'maximum_size'
p549
S'126976'
p550
sS'speed'
p551
S'57600'
p552
ssS'name'
p553
S'Arduino Mega (ATmega1280)'
p554
saa(lp555
S'leonardo'
p556
a(dp557
S'build'
p558
(dp559
S'core'
p560
S'arduino'
p561
sS'f_cpu'
p562
S'16000000L'
p563
sS'vid'
p564
S'0x2341'
p565
sS'pid'
p566
S'0x8036'
p567
sS'variant'
p568
S'leonardo'
p569
sS'mcu'
p570
S'atmega32u4'
p571
ssS'bootloader'
p572
(dp573
S'extended_fuses'
p574
S'0xcb'
p575
sS'high_fuses'
p576
S'0xd8'
p577
sS'low_fuses'
p578
S'0xff'
p579
sS'lock_bits'
p580
S'0x2F'
p581
sS'file'
p582
S'Caterina-Leonardo.hex'
p583
sS'path'
p584
S'caterina'
p585
sS'unlock_bits'
p586
S'0x3F'
p587
ssS'upload'
p588
(dp589
S'protocol'
p590
S'avr109'
p591
sS'maximum_size'
p592
S'28672'
p593
sS'speed'
p594
S'57600'
p595
sS'disable_flushing'
p596
S'true'
p597
ssS'name'
p598
S'Arduino Leonardo'
p599
saa(lp600
S'mini328'
p601
a(dp602
S'build'
p603
(dp604
S'core'
p605
S'arduino'
p606
sS'mcu'
p607
S'atmega328p'
p608
sS'f_cpu'
p609
S'16000000L'
p610
sS'variant'
p611
S'eightanaloginputs'
p612
ssS'bootloader'
p613
(dp614
S'extended_fuses'
p615
S'0x05'
p616
sS'high_fuses'
p617
S'0xd8'
p618
sS'low_fuses'
p619
S'0xff'
p620
sS'lock_bits'
p621
S'0x0F'
p622
sS'file'
p623
S'optiboot_atmega328-Mini.hex'
p624
sS'path'
p625
S'optiboot'
p626
sS'unlock_bits'
p627
S'0x3F'
p628
ssS'upload'
p629
(dp630
S'protocol'
p631
S'arduino'
p632
sS'maximum_size'
p633
S'28672'
p634
sS'speed'
p635
S'115200'
p636
ssS'name'
p637
S'Arduino Mini w/ ATmega328'
p638
saa(lp639
S'mini'
p640
a(dp641
S'build'
p642
(dp643
S'core'
p644
S'arduino'
p645
sS'mcu'
p646
S'atmega168'
p647
sS'f_cpu'
p648
S'16000000L'
p649
sS'variant'
p650
S'eightanaloginputs'
p651
ssS'bootloader'
p652
(dp653
S'extended_fuses'
p654
S'0x00'
p655
sS'high_fuses'
p656
S'0xdd'
p657
sS'low_fuses'
p658
S'0xff'
p659
sS'lock_bits'
p660
S'0x0F'
p661
sS'file'
p662
S'ATmegaBOOT_168_ng.hex'
p663
sS'path'
p664
S'atmega'
p665
sS'unlock_bits'
p666
S'0x3F'
p667
ssS'upload'
p668
(dp669
S'protocol'
p670
S'arduino'
p671
sS'maximum_size'
p672
S'14336'
p673
sS'speed'
p674
S'19200'
p675
ssS'name'
p676
S'Arduino Mini w/ ATmega168'
p677
saa(lp678
S'ethernet'
p679
a(dp680
S'build'
p681
(dp682
S'variant'
p683
S'standard'
p684
sS'mcu'
p685
S'atmega328p'
p686
sS'f_cpu'
p687
S'16000000L'
p688
sS'core'
p689
S'arduino'
p690
ssS'bootloader'
p691
(dp692
S'extended_fuses'
p693
S'0x05'
p694
sS'high_fuses'
p695
S'0xde'
p696
sS'low_fuses'
p697
S'0xff'
p698
sS'lock_bits'
p699
S'0x0F'
p700
sS'file'
p701
S'optiboot_atmega328.hex'
p702
sS'path'
p703
S'optiboot'
p704
sS'unlock_bits'
p705
S'0x3F'
p706
ssS'upload'
p707
(dp708
S'protocol'
p709
S'arduino'
p710
sS'maximum_size'
p711
S'32256'
p712
sS'speed'
p713
S'115200'
p714
ssS'name'
p715
S'Arduino Ethernet'
p716
saa(lp717
S'fio'
p718
a(dp719
S'build'
p720
(dp721
S'core'
p722
S'arduino'
p723
sS'mcu'
p724
S'atmega328p'
p725
sS'f_cpu'
p726
S'8000000L'
p727
sS'variant'
p728
S'eightanaloginputs'
p729
ssS'bootloader'
p730
(dp731
S'extended_fuses'
p732
S'0x05'
p733
sS'high_fuses'
p734
S'0xDA'
p735
sS'low_fuses'
p736
S'0xFF'
p737
sS'lock_bits'
p738
S'0x0F'
p739
sS'file'
p740
S'ATmegaBOOT_168_atmega328_pro_8MHz.hex'
p741
sS'path'
p742
S'arduino:atmega'
p743
sS'unlock_bits'
p744
S'0x3F'
p745
ssS'upload'
p746
(dp747
S'protocol'
p748
S'arduino'
p749
sS'maximum_size'
p750
S'30720'
p751
sS'speed'
p752
S'57600'
p753
ssS'name'
p754
S'Arduino Fio'
p755
saa(lp756
S'bt328'
p757
a(dp758
S'build'
p759
(dp760
S'core'
p761
S'arduino'
p762
sS'mcu'
p763
S'atmega328p'
p764
sS'f_cpu'
p765
S'16000000L'
p766
sS'variant'
p767
S'eightanaloginputs'
p768
ssS'bootloader'
p769
(dp770
S'extended_fuses'
p771
S'0x05'
p772
sS'high_fuses'
p773
S'0xd8'
p774
sS'low_fuses'
p775
S'0xff'
p776
sS'lock_bits'
p777
S'0x0F'
p778
sS'file'
p779
S'ATmegaBOOT_168_atmega328_bt.hex'
p780
sS'path'
p781
S'bt'
p782
sS'unlock_bits'
p783
S'0x3F'
p784
ssS'upload'
p785
(dp786
S'protocol'
p787
S'arduino'
p788
sS'maximum_size'
p789
S'28672'
p790
sS'speed'
p791
S'19200'
p792
sS'disable_flushing'
p793
S'true'
p794
ssS'name'
p795
S'Arduino BT w/ ATmega328'
p796
saa(lp797
S'bt'
p798
a(dp799
S'build'
p800
(dp801
S'core'
p802
S'arduino'
p803
sS'mcu'
p804
S'atmega168'
p805
sS'f_cpu'
p806
S'16000000L'
p807
sS'variant'
p808
S'eightanaloginputs'
p809
ssS'bootloader'
p810
(dp811
S'extended_fuses'
p812
S'0x00'
p813
sS'high_fuses'
p814
S'0xdd'
p815
sS'low_fuses'
p816
S'0xff'
p817
sS'lock_bits'
p818
S'0x0F'
p819
sS'file'
p820
S'ATmegaBOOT_168.hex'
p821
sS'path'
p822
S'bt'
p823
sS'unlock_bits'
p824
S'0x3F'
p825
ssS'upload'
p826
(dp827
S'protocol'
p828
S'arduino'
p829
sS'maximum_size'
p830
S'14336'
p831
sS'speed'
p832
S'19200'
p833
sS'disable_flushing'
p834
S'true'
p835
ssS'name'
p836
S'Arduino BT w/ ATmega168'
p837
saa(lp838
S'lilypad328'
p839
a(dp840
S'build'
p841
(dp842
S'core'
p843
S'arduino'
p844
sS'mcu'
p845
S'atmega328p'
p846
sS'f_cpu'
p847
S'8000000L'
p848
sS'variant'
p849
S'standard'
p850
ssS'bootloader'
p851
(dp852
S'extended_fuses'
p853
S'0x05'
p854
sS'high_fuses'
p855
S'0xDA'
p856
sS'low_fuses'
p857
S'0xFF'
p858
sS'lock_bits'
p859
S'0x0F'
p860
sS'file'
p861
S'ATmegaBOOT_168_atmega328_pro_8MHz.hex'
p862
sS'path'
p863
S'atmega'
p864
sS'unlock_bits'
p865
S'0x3F'
p866
ssS'upload'
p867
(dp868
S'protocol'
p869
S'arduino'
p870
sS'maximum_size'
p871
S'30720'
p872
sS'speed'
p873
S'57600'
p874
ssS'name'
p875
S'LilyPad Arduino w/ ATmega328'
p876
saa(lp877
S'lilypad'
p878
a(dp879
S'build'
p880
(dp881
S'core'
p882
S'arduino'
p883
sS'mcu'
p884
S'atmega168'
p885
sS'f_cpu'
p886
S'8000000L'
p887
sS'variant'
p888
S'standard'
p889
ssS'bootloader'
p890
(dp891
S'extended_fuses'
p892
S'0x00'
p893
sS'high_fuses'
p894
S'0xdd'
p895
sS'low_fuses'
p896
S'0xe2'
p897
sS'lock_bits'
p898
S'0x0F'
p899
sS'file'
p900
S'LilyPadBOOT_168.hex'
p901
sS'path'
p902
S'lilypad'
p903
sS'unlock_bits'
p904
S'0x3F'
p905
ssS'upload'
p906
(dp907
S'protocol'
p908
S'arduino'
p909
sS'maximum_size'
p910
S'14336'
p911
sS'speed'
p912
S'19200'
p913
ssS'name'
p914
S'LilyPad Arduino w/ ATmega168'
p915
saa(lp916
S'pro5v328'
p917
a(dp918
S'build'
p919
(dp920
S'core'
p921
S'arduino'
p922
sS'mcu'
p923
S'atmega328p'
p924
sS'f_cpu'
p925
S'16000000L'
p926
sS'variant'
p927
S'standard'
p928
ssS'bootloader'
p929
(dp930
S'extended_fuses'
p931
S'0x05'
p932
sS'high_fuses'
p933
S'0xDA'
p934
sS'low_fuses'
p935
S'0xFF'
p936
sS'lock_bits'
p937
S'0x0F'
p938
sS'file'
p939
S'ATmegaBOOT_168_atmega328.hex'
p940
sS'path'
p941
S'atmega'
p942
sS'unlock_bits'
p943
S'0x3F'
p944
ssS'upload'
p945
(dp946
S'protocol'
p947
S'arduino'
p948
sS'maximum_size'
p949
S'30720'
p950
sS'speed'
p951
S'57600'
p952
ssS'name'
p953
S'Arduino Pro or Pro Mini (5V, 16 MHz) w/ ATmega328'
p954
saa(lp955
S'pro5v'
p956
a(dp957
S'build'
p958
(dp959
S'core'
p960
S'arduino'
p961
sS'mcu'
p962
S'atmega168'
p963
sS'f_cpu'
p964
S'16000000L'
p965
sS'variant'
p966
S'standard'
p967
ssS'bootloader'
p968
(dp969
S'extended_fuses'
p970
S'0x00'
p971
sS'high_fuses'
p972
S'0xdd'
p973
sS'low_fuses'
p974
S'0xff'
p975
sS'lock_bits'
p976
S'0x0F'
p977
sS'file'
p978
S'ATmegaBOOT_168_diecimila.hex'
p979
sS'path'
p980
S'atmega'
p981
sS'unlock_bits'
p982
S'0x3F'
p983
ssS'upload'
p984
(dp985
S'protocol'
p986
S'arduino'
p987
sS'maximum_size'
p988
S'14336'
p989
sS'speed'
p990
S'19200'
p991
ssS'name'
p992
S'Arduino Pro or Pro Mini (5V, 16 MHz) w/ ATmega168'
p993
saa(lp994
S'pro328'
p995
a(dp996
S'build'
p997
(dp998
S'core'
p999
S'arduino'
p1000
sS'mcu'
p1001
S'atmega328p'
p1002
sS'f_cpu'
p1003
S'8000000L'
p1004
sS'variant'
p1005
S'standard'
p1006
ssS'bootloader'
p1007
(dp1008
S'extended_fuses'
p1009
S'0x05'
p1010
sS'high_fuses'
p1011
S'0xDA'
p1012
sS'low_fuses'
p1013
S'0xFF'
p1014
sS'lock_bits'
p1015
S'0x0F'
p1016
sS'file'
p1017
S'ATmegaBOOT_168_atmega328_pro_8MHz.hex'
p1018
sS'path'
p1019
S'atmega'
p1020
sS'unlock_bits'
p1021
S'0x3F'
p1022
ssS'upload'
p1023
(dp1024
S'protocol'
p1025
S'arduino'
p1026
sS'maximum_size'
p1027
S'30720'
p1028
sS'speed'
p1029
S'57600'
p1030
ssS'name'
p1031
S'Arduino Pro or Pro Mini (3.3V, 8 MHz) w/ ATmega328'
p1032
saa(lp1033
S'pro'
p1034
a(dp1035
S'build'
p1036
(dp1037
S'core'
p1038
S'arduino'
p1039
sS'mcu'
p1040
S'atmega168'
p1041
sS'f_cpu'
p1042
S'8000000L'
p1043
sS'variant'
p1044
S'standard'
p1045
ssS'bootloader'
p1046
(dp1047
S'extended_fuses'
p1048
S'0x00'
p1049
sS'high_fuses'
p1050
S'0xdd'
p1051
sS'low_fuses'
p1052
S'0xc6'
p1053
sS'lock_bits'
p1054
S'0x0F'
p1055
sS'file'
p1056
S'ATmegaBOOT_168_pro_8MHz.hex'
p1057
sS'path'
p1058
S'atmega'
p1059
sS'unlock_bits'
p1060
S'0x3F'
p1061
ssS'upload'
p1062
(dp1063
S'protocol'
p1064
S'arduino'
p1065
sS'maximum_size'
p1066
S'14336'
p1067
sS'speed'
p1068
S'19200'
p1069
ssS'name'
p1070
S'Arduino Pro or Pro Mini (3.3V, 8 MHz) w/ ATmega168'
p1071
saa(lp1072
S'atmega168'
p1073
a(dp1074
S'build'
p1075
(dp1076
S'core'
p1077
S'arduino'
p1078
sS'mcu'
p1079
S'atmega168'
p1080
sS'f_cpu'
p1081
S'16000000L'
p1082
sS'variant'
p1083
S'standard'
p1084
ssS'bootloader'
p1085
(dp1086
S'extended_fuses'
p1087
S'0x00'
p1088
sS'high_fuses'
p1089
S'0xdd'
p1090
sS'low_fuses'
p1091
S'0xff'
p1092
sS'lock_bits'
p1093
S'0x0F'
p1094
sS'file'
p1095
S'ATmegaBOOT_168_ng.hex'
p1096
sS'path'
p1097
S'atmega'
p1098
sS'unlock_bits'
p1099
S'0x3F'
p1100
ssS'upload'
p1101
(dp1102
S'protocol'
p1103
S'arduino'
p1104
sS'maximum_size'
p1105
S'14336'
p1106
sS'speed'
p1107
S'19200'
p1108
ssS'name'
p1109
S'Arduino NG or older w/ ATmega168'
p1110
saa(lp1111
S'atmega8'
p1112
a(dp1113
S'build'
p1114
(dp1115
S'core'
p1116
S'arduino'
p1117
sS'mcu'
p1118
S'atmega8'
p1119
sS'f_cpu'
p1120
S'16000000L'
p1121
sS'variant'
p1122
S'standard'
p1123
ssS'bootloader'
p1124
(dp1125
S'high_fuses'
p1126
S'0xca'
p1127
sS'low_fuses'
p1128
S'0xdf'
p1129
sS'lock_bits'
p1130
S'0x0F'
p1131
sS'file'
p1132
S'ATmegaBOOT.hex'
p1133
sS'path'
p1134
S'atmega8'
p1135
sS'unlock_bits'
p1136
S'0x3F'
p1137
ssS'upload'
p1138
(dp1139
S'protocol'
p1140
S'arduino'
p1141
sS'maximum_size'
p1142
S'7168'
p1143
sS'speed'
p1144
S'19200'
p1145
ssS'name'
p1146
S'Arduino NG or older w/ ATmega8'
p1147
saatp1148
Rp1149
(dp1150
S'default'
p1151
S'uno'
p1152
sbtp1153
a(S'used_libs'
p1154
(lp1155
S'lib/Adafruit_MotorShield'
p1156
aS'/usr/share/arduino/libraries/Wire'
p1157
aS'/usr/share/arduino/hardware/arduino/cores/arduino'
p1158
atp1159
a(S'make'
p1160
S'/usr/bin/make'
p1161
tp1162
a(S'arduino_libraries_dir'
p1163
S'/usr/share/arduino/libraries'
p1164
tp1165
a(S'cc'
p1166
S'/usr/bin/avr-gcc'
p1167
tp1168
a(S'cflags'
p1169
g2
(g3
g4
(lp1170
tp1171
Rp1172
tp1173
a(S'cxxflags'
p1174
g2
(g3
g4
(lp1175
S'-fno-exceptions'
p1176
atp1177
Rp1178
tp1179
a(S'arduino_variants_dir'
p1180
S'/usr/share/arduino/hardware/arduino/variants'
p1181
tp1182
a(S'stty'
p1183
S'/bin/stty'
p1184
tp1185
a(S'version.txt'
p1186
S'/usr/share/arduino/lib/version.txt'
p1187
tp1188
a(S'arduino_core_dir'
p1189
g1158
tp1190
a(S'boards.txt'
p1191
S'/usr/share/arduino/hardware/arduino/boards.txt'
p1192
tp1193
a(S'avrdude.conf'
p1194
S'/usr/share/arduino/hardware/tools/avrdude.conf'
p1195
tp1196
a(S'deps'
p1197
g2
(g3
g4
(lp1198
S'.build/gertduino328/src/dependencies.d'
p1199
aS'.build/gertduino328/arduino/dependencies.d'
p1200
aS'.build/gertduino328/Adafruit_MotorShield/dependencies.d'
p1201
aS'.build/gertduino328/Wire/dependencies.d'
p1202
atp1203
Rp1204
tp1205
a.